(lp1
(lp2
I1
aa(lp3
I1
aa(lp4
I1
aa(lp5
I1
aa(lp6
I1
aa(lp7
I1
aa(lp8
I1
aa(lp9
I1
aa(lp10
I1
aa(lp11
I1
aa(lp12
I1
aa(lp13
I1
aa(lp14
I1
aa(lp15
I1
aa(lp16
I1
aa(lp17
I1
aa(lp18
I1
aa(lp19
I1
aa(lp20
I1
aa(lp21
I1
aa(lp22
I1
aa(lp23
I1
aa(lp24
I1
aa(lp25
I1
aa(lp26
I1
aa(lp27
I1
aa(lp28
I1
aa(lp29
I1
aa(lp30
I1
aa(lp31
I1
aa(lp32
I1
aa(lp33
I1
aa(lp34
I1
aa(lp35
I1
aa(lp36
I1
aa(lp37
I1
aa(lp38
I1
aa(lp39
I1
aa(lp40
I1
aa(lp41
I1
aa(lp42
I1
aa(lp43
I1
aa(lp44
I1
aa(lp45
I1
aa(lp46
I1
aa(lp47
I1
aa(lp48
I1
aa(lp49
I1
aa(lp50
I1
aa(lp51
I1
aa(lp52
I1
aa(lp53
I1
aa(lp54
I1
aa(lp55
I1
aa(lp56
I1
aa(lp57
I1
aa(lp58
I1
aa(lp59
I1
aa(lp60
I1
aa(lp61
I1
aa(lp62
I1
aa(lp63
I1
aa(lp64
I1
aa(lp65
I1
aa(lp66
I1
aa(lp67
I1
aa(lp68
I1
aa(lp69
I1
aa(lp70
I1
aa(lp71
I1
aa(lp72
I1
aa(lp73
I1
aa(lp74
I1
aa(lp75
I1
aa(lp76
I1
aa(lp77
I1
aa(lp78
I1
aa(lp79
I1
aa(lp80
I1
aa(lp81
I1
aa(lp82
I1
aa(lp83
I1
aa(lp84
I1
aa(lp85
I1
aa(lp86
I1
aa(lp87
I1
aa(lp88
I1
aa(lp89
I1
aa(lp90
I1
aa(lp91
I1
aa(lp92
I1
aa(lp93
I1
aa(lp94
I1
aa(lp95
I1
aa(lp96
I1
aa(lp97
I1
aa(lp98
I1
aa(lp99
I1
aa(lp100
I1
aa(lp101
I1
aa(lp102
I1
aa(lp103
I1
aa(lp104
I1
aa(lp105
I1
aa(lp106
I1
aa(lp107
I1
aa(lp108
I1
aa(lp109
I1
aa(lp110
I1
aa(lp111
I1
aa(lp112
I1
aa(lp113
I1
aa(lp114
I1
aa(lp115
I1
aa(lp116
I1
aa(lp117
I1
aa(lp118
I1
aa(lp119
I1
aa(lp120
I1
aa(lp121
I1
aa(lp122
I1
aa(lp123
I1
aa(lp124
I1
aa(lp125
I1
aa(lp126
I1
aa(lp127
I1
aa(lp128
I1
aa(lp129
I1
aa(lp130
I1
aa(lp131
I1
aa(lp132
I1
aa(lp133
I1
aa(lp134
I1
aa(lp135
I1
aa(lp136
I1
aa(lp137
I1
aa(lp138
I1
aa(lp139
I1
aa(lp140
I1
aa(lp141
I1
aa(lp142
I1
aa(lp143
I1
aa(lp144
I1
aa(lp145
I1
aa(lp146
I1
aa(lp147
I1
aa(lp148
I1
aa(lp149
I1
aa(lp150
I1
aa(lp151
I1
aa(lp152
I1
aa(lp153
I1
aa(lp154
I1
aa(lp155
I1
aa(lp156
I1
aa(lp157
I1
aa(lp158
I1
aa(lp159
I1
aa(lp160
I1
aa(lp161
I1
aa(lp162
I1
aa(lp163
I1
aa(lp164
I1
aa(lp165
I1
aa(lp166
I1
aa(lp167
I1
aa(lp168
I1
aa(lp169
I1
aa(lp170
I1
aa(lp171
I1
aa(lp172
I1
aa(lp173
I1
aa(lp174
I1
aa(lp175
I1
aa(lp176
I1
aa(lp177
I1
aa(lp178
I1
aa(lp179
I1
aa(lp180
I1
aa(lp181
I1
aa(lp182
I1
aa(lp183
I1
aa(lp184
I1
aa(lp185
I1
aa(lp186
I1
aa(lp187
I1
aa(lp188
I1
aa(lp189
I1
aa(lp190
I1
aa(lp191
I1
aa(lp192
I1
aa(lp193
I1
aa(lp194
I1
aa(lp195
I1
aa(lp196
I1
aa(lp197
I1
aa(lp198
I1
aa(lp199
I1
aa(lp200
I1
aa(lp201
I1
aa(lp202
I1
aa(lp203
I1
aa(lp204
I1
aa(lp205
I1
aa(lp206
I1
aa(lp207
I1
aa(lp208
I1
aa(lp209
I1
aa(lp210
I1
aa(lp211
I1
aa(lp212
I1
aa(lp213
I1
aa(lp214
I1
aa(lp215
I1
aa(lp216
I1
aa(lp217
I1
aa(lp218
I1
aa(lp219
I1
aa(lp220
I1
aa(lp221
I1
aa(lp222
I1
aa(lp223
I1
aa(lp224
I1
aa(lp225
I1
aa(lp226
I1
aa(lp227
I1
aa(lp228
I1
aa(lp229
I1
aa(lp230
I1
aa(lp231
I1
aa(lp232
I1
aa(lp233
I1
aa(lp234
I1
aa(lp235
I1
aa(lp236
I1
aa(lp237
I1
aa(lp238
I1
aa(lp239
I1
aa(lp240
I1
aa(lp241
I1
aa(lp242
I1
aa(lp243
I1
aa(lp244
I1
aa(lp245
I1
aa(lp246
I1
aa(lp247
I1
aa(lp248
I1
aa(lp249
I1
aa(lp250
I1
aa(lp251
I1
aa(lp252
I1
aa(lp253
I1
aa(lp254
I1
aa(lp255
I1
aa(lp256
I1
aa(lp257
I1
aa(lp258
I1
aa(lp259
I1
aa(lp260
I1
aa(lp261
I1
aa(lp262
I1
aa(lp263
I1
aa(lp264
I1
aa(lp265
I1
aa(lp266
I1
aa(lp267
I1
aa(lp268
I1
aa(lp269
I1
aa(lp270
I1
aa(lp271
I1
aa(lp272
I1
aa(lp273
I1
aa(lp274
I1
aa(lp275
I1
aa(lp276
I1
aa(lp277
I1
aa(lp278
I1
aa(lp279
I1
aa(lp280
I1
aa(lp281
I1
aa(lp282
I1
aa(lp283
I1
aa(lp284
I1
aa(lp285
I1
aa(lp286
I1
aa(lp287
I1
aa(lp288
I1
aa(lp289
I1
aa(lp290
I1
aa(lp291
I1
aa(lp292
I1
aa(lp293
I1
aa(lp294
I1
aa(lp295
I1
aa(lp296
I1
aa(lp297
I1
aa(lp298
I1
aa(lp299
I1
aa(lp300
I1
aa(lp301
I1
aa(lp302
I1
aa(lp303
I1
aa(lp304
I1
aa(lp305
I1
aa(lp306
I1
aa(lp307
I1
aa(lp308
I1
aa(lp309
I1
aa(lp310
I1
aa(lp311
I1
aa(lp312
I1
aa(lp313
I1
aa(lp314
I1
aa(lp315
I1
aa(lp316
I1
aa(lp317
I1
aa(lp318
I1
aa(lp319
I1
aa(lp320
I1
aa(lp321
I1
aa(lp322
I1
aa(lp323
I1
aa(lp324
I1
aa(lp325
I1
aa(lp326
I1
aa(lp327
I1
aa(lp328
I1
aa(lp329
I1
aa(lp330
I1
aa(lp331
I1
aa(lp332
I1
aa(lp333
I1
aa(lp334
I1
aa(lp335
I1
aa(lp336
I1
aa(lp337
I1
aa(lp338
I1
aa(lp339
I1
aa(lp340
I1
aa(lp341
I1
aa(lp342
I1
aa(lp343
I1
aa(lp344
I1
aa(lp345
I1
aa(lp346
I1
aa(lp347
I1
aa(lp348
I1
aa(lp349
I1
aa(lp350
I1
aa(lp351
I1
aa(lp352
I1
aa(lp353
I1
aa(lp354
I1
aa(lp355
I1
aa(lp356
I1
aa(lp357
I1
aa(lp358
I1
aa(lp359
I1
aa(lp360
I1
aa(lp361
I1
aa(lp362
I1
aa(lp363
I1
aa(lp364
I1
aa(lp365
I1
aa(lp366
I1
aa(lp367
I1
aa(lp368
I1
aa(lp369
I1
aa(lp370
I1
aa(lp371
I1
aa(lp372
I1
aa(lp373
I1
aa(lp374
I1
aa(lp375
I1
aa(lp376
I1
aa(lp377
I1
aa(lp378
I1
aa(lp379
I1
aa(lp380
I1
aa(lp381
I1
aa(lp382
I1
aa(lp383
I1
aa(lp384
I1
aa(lp385
I1
aa(lp386
I1
aa(lp387
I1
aa(lp388
I1
aa(lp389
I1
aa(lp390
I1
aa(lp391
I1
aa(lp392
I1
aa(lp393
I1
aa(lp394
I1
aa(lp395
I1
aa(lp396
I1
aa(lp397
I1
aa(lp398
I1
aa(lp399
I1
aa(lp400
I1
aa(lp401
I1
aa(lp402
I1
aa(lp403
I1
aa(lp404
I1
aa(lp405
I1
aa(lp406
I1
aa(lp407
I1
aa(lp408
I1
aa(lp409
I1
aa(lp410
I1
aa(lp411
I1
aa(lp412
I1
aa(lp413
I1
aa(lp414
I1
aa(lp415
I1
aa(lp416
I1
aa(lp417
I1
aa(lp418
I1
aa(lp419
I1
aa(lp420
I1
aa(lp421
I1
aa(lp422
I1
aa(lp423
I1
aa(lp424
I1
aa(lp425
I1
aa(lp426
I1
aa(lp427
I1
aa(lp428
I1
aa(lp429
I1
aa(lp430
I1
aa(lp431
I1
aa(lp432
I1
aa(lp433
I1
aa(lp434
I1
aa(lp435
I1
aa(lp436
I1
aa(lp437
I1
aa(lp438
I1
aa(lp439
I1
aa(lp440
I1
aa(lp441
I1
aa(lp442
I1
aa(lp443
I1
aa(lp444
I1
aa(lp445
I1
aa(lp446
I1
aa(lp447
I1
aa(lp448
I1
aa(lp449
I1
aa(lp450
I1
aa(lp451
I1
aa(lp452
I1
aa(lp453
I1
aa(lp454
I1
aa(lp455
I1
aa(lp456
I1
aa(lp457
I1
aa(lp458
I1
aa(lp459
I1
aa(lp460
I1
aa(lp461
I1
aa(lp462
I1
aa(lp463
I1
aa(lp464
I1
aa(lp465
I1
aa(lp466
I1
aa(lp467
I1
aa(lp468
I1
aa(lp469
I1
aa(lp470
I1
aa(lp471
I1
aa(lp472
I1
aa(lp473
I1
aa(lp474
I1
aa(lp475
I1
aa(lp476
I1
aa(lp477
I1
aa(lp478
I1
aa(lp479
I1
aa(lp480
I1
aa(lp481
I1
aa(lp482
I1
aa(lp483
I1
aa(lp484
I1
aa(lp485
I1
aa(lp486
I1
aa(lp487
I1
aa(lp488
I1
aa(lp489
I1
aa(lp490
I1
aa(lp491
I1
aa(lp492
I1
aa(lp493
I1
aa(lp494
I1
aa(lp495
I1
aa(lp496
I1
aa(lp497
I1
aa(lp498
I1
aa(lp499
I1
aa(lp500
I1
aa(lp501
I1
aa(lp502
I1
aa(lp503
I1
aa(lp504
I1
aa(lp505
I1
aa(lp506
I1
aa(lp507
I1
aa(lp508
I1
aa(lp509
I1
aa(lp510
I1
aa(lp511
I1
aa(lp512
I1
aa(lp513
I1
aa(lp514
I1
aa(lp515
I1
aa(lp516
I1
aa(lp517
I1
aa(lp518
I1
aa(lp519
I1
aa(lp520
I1
aa(lp521
I1
aa(lp522
I1
aa(lp523
I1
aa(lp524
I1
aa(lp525
I1
aa(lp526
I1
aa(lp527
I1
aa(lp528
I1
aa(lp529
I1
aa(lp530
I1
aa(lp531
I1
aa(lp532
I1
aa(lp533
I1
aa(lp534
I1
aa(lp535
I1
aa(lp536
I1
aa(lp537
I1
aa(lp538
I1
aa(lp539
I1
aa(lp540
I1
aa(lp541
I1
aa(lp542
I1
aa(lp543
I1
aa(lp544
I1
aa(lp545
I1
aa(lp546
I1
aa(lp547
I1
aa(lp548
I1
aa(lp549
I1
aa(lp550
I1
aa(lp551
I1
aa(lp552
I1
aa(lp553
I1
aa(lp554
I1
aa(lp555
I1
aa(lp556
I1
aa(lp557
I1
aa(lp558
I1
aa(lp559
I1
aa(lp560
I1
aa(lp561
I1
aa(lp562
I1
aa(lp563
I1
aa(lp564
I1
aa(lp565
I1
aa(lp566
I1
aa(lp567
I1
aa(lp568
I1
aa(lp569
I1
aa(lp570
I1
aa(lp571
I1
aa(lp572
I1
aa(lp573
I1
aa(lp574
I1
aa(lp575
I1
aa(lp576
I1
aa(lp577
I1
aa(lp578
I1
aa(lp579
I1
aa(lp580
I1
aa(lp581
I1
aa(lp582
I1
aa(lp583
I1
aa(lp584
I1
aa(lp585
I1
aa(lp586
I1
aa(lp587
I1
aa(lp588
I1
aa(lp589
I1
aa(lp590
I1
aa(lp591
I1
aa(lp592
I1
aa(lp593
I1
aa(lp594
I1
aa(lp595
I1
aa(lp596
I1
aa(lp597
I1
aa(lp598
I1
aa(lp599
I1
aa(lp600
I1
aa(lp601
I1
aa(lp602
I1
aa(lp603
I1
aa(lp604
I1
aa(lp605
I1
aa(lp606
I1
aa(lp607
I1
aa(lp608
I1
aa(lp609
I1
aa(lp610
I1
aa(lp611
I1
aa(lp612
I1
aa(lp613
I1
aa(lp614
I1
aa(lp615
I1
aa(lp616
I1
aa(lp617
I1
aa(lp618
I1
aa(lp619
I1
aa(lp620
I1
aa(lp621
I1
aa(lp622
I1
aa(lp623
I1
aa(lp624
I1
aa(lp625
I1
aa(lp626
I1
aa(lp627
I1
aa(lp628
I1
aa(lp629
I1
aa(lp630
I1
aa(lp631
I1
aa(lp632
I1
aa(lp633
I1
aa(lp634
I1
aa(lp635
I1
aa(lp636
I1
aa(lp637
I1
aa(lp638
I1
aa(lp639
I1
aa(lp640
I1
aa(lp641
I1
aa(lp642
I1
aa(lp643
I1
aa(lp644
I1
aa(lp645
I1
aa(lp646
I1
aa(lp647
I1
aa(lp648
I1
aa(lp649
I1
aa(lp650
I1
aa(lp651
I1
aa(lp652
I1
aa(lp653
I1
aa(lp654
I1
aa(lp655
I1
aa(lp656
I1
aa(lp657
I1
aa(lp658
I1
aa(lp659
I1
aa(lp660
I1
aa(lp661
I1
aa(lp662
I1
aa(lp663
I1
aa(lp664
I1
aa(lp665
I1
aa(lp666
I1
aa(lp667
I1
aa(lp668
I1
aa(lp669
I1
aa(lp670
I1
aa(lp671
I1
aa(lp672
I1
aa(lp673
I1
aa(lp674
I1
aa(lp675
I1
aa(lp676
I1
aa(lp677
I1
aa(lp678
I1
aa(lp679
I1
aa(lp680
I1
aa(lp681
I1
aa(lp682
I1
aa(lp683
I1
aa(lp684
I1
aa(lp685
I1
aa(lp686
I1
aa(lp687
I1
aa(lp688
I1
aa(lp689
I1
aa(lp690
I1
aa(lp691
I1
aa(lp692
I1
aa(lp693
I1
aa(lp694
I1
aa(lp695
I1
aa(lp696
I1
aa(lp697
I1
aa(lp698
I1
aa(lp699
I1
aa(lp700
I1
aa(lp701
I1
aa(lp702
I1
aa(lp703
I1
aa(lp704
I1
aa(lp705
I1
aa(lp706
I1
aa(lp707
I1
aa(lp708
I1
aa(lp709
I1
aa(lp710
I1
aa(lp711
I1
aa(lp712
I1
aa(lp713
I1
aa(lp714
I1
aa(lp715
I1
aa(lp716
I1
aa(lp717
I1
aa(lp718
I1
aa(lp719
I1
aa(lp720
I1
aa(lp721
I1
aa(lp722
I1
aa(lp723
I1
aa(lp724
I1
aa(lp725
I1
aa(lp726
I1
aa(lp727
I1
aa(lp728
I1
aa(lp729
I1
aa(lp730
I1
aa(lp731
I1
aa(lp732
I1
aa(lp733
I1
aa(lp734
I1
aa(lp735
I1
aa(lp736
I1
aa(lp737
I1
aa(lp738
I1
aa(lp739
I1
aa(lp740
I1
aa(lp741
I1
aa(lp742
I1
aa(lp743
I1
aa(lp744
I1
aa(lp745
I1
aa(lp746
I1
aa(lp747
I1
aa(lp748
I1
aa(lp749
I1
aa(lp750
I1
aa(lp751
I1
aa(lp752
I1
aa(lp753
I1
aa(lp754
I1
aa(lp755
I1
aa(lp756
I1
aa(lp757
I1
aa(lp758
I1
aa(lp759
I1
aa(lp760
I1
aa(lp761
I1
aa(lp762
I1
aa(lp763
I1
aa(lp764
I1
aa(lp765
I1
aa(lp766
I1
aa(lp767
I1
aa(lp768
I1
aa(lp769
I1
aa(lp770
I1
aa(lp771
I1
aa(lp772
I1
aa(lp773
I1
aa(lp774
I1
aa(lp775
I1
aa(lp776
I1
aa(lp777
I1
aa(lp778
I1
aa(lp779
I1
aa(lp780
I1
aa(lp781
I1
aa(lp782
I1
aa(lp783
I1
aa(lp784
I1
aa(lp785
I1
aa(lp786
I1
aa(lp787
I1
aa(lp788
I1
aa(lp789
I1
aa(lp790
I1
aa(lp791
I1
aa(lp792
I1
aa(lp793
I1
aa(lp794
I1
aa(lp795
I1
aa(lp796
I1
aa(lp797
I1
aa(lp798
I1
aa(lp799
I1
aa(lp800
I1
aa(lp801
I1
aa(lp802
I1
aa(lp803
I1
aa(lp804
I1
aa(lp805
I1
aa(lp806
I1
aa(lp807
I1
aa(lp808
I1
aa(lp809
I1
aa(lp810
I1
aa(lp811
I1
aa(lp812
I1
aa(lp813
I1
aa(lp814
I1
aa(lp815
I1
aa(lp816
I1
aa(lp817
I1
aa(lp818
I1
aa(lp819
I1
aa(lp820
I1
aa(lp821
I1
aa(lp822
I1
aa(lp823
I1
aa(lp824
I1
aa(lp825
I1
aa(lp826
I1
aa(lp827
I1
aa(lp828
I1
aa(lp829
I1
aa(lp830
I1
aa(lp831
I1
aa(lp832
I1
aa(lp833
I1
aa(lp834
I1
aa(lp835
I1
aa(lp836
I1
aa(lp837
I1
aa(lp838
I1
aa(lp839
I1
aa(lp840
I1
aa(lp841
I1
aa(lp842
I1
aa(lp843
I1
aa(lp844
I1
aa(lp845
I1
aa(lp846
I1
aa(lp847
I1
aa(lp848
I1
aa(lp849
I1
aa(lp850
I1
aa(lp851
I1
aa(lp852
I1
aa(lp853
I1
aa(lp854
I1
aa(lp855
I1
aa(lp856
I1
aa(lp857
I1
aa(lp858
I1
aa(lp859
I1
aa(lp860
I1
aa(lp861
I1
aa(lp862
I1
aa(lp863
I1
aa(lp864
I1
aa(lp865
I1
aa(lp866
I1
aa(lp867
I1
aa(lp868
I1
aa(lp869
I1
aa(lp870
I1
aa(lp871
I1
aa(lp872
I1
aa(lp873
I1
aa(lp874
I1
aa(lp875
I1
aa(lp876
I1
aa(lp877
I1
aa(lp878
I1
aa(lp879
I1
aa(lp880
I1
aa(lp881
I1
aa(lp882
I1
aa(lp883
I1
aa(lp884
I1
aa(lp885
I1
aa(lp886
I1
aa(lp887
I1
aa(lp888
I1
aa(lp889
I1
aa(lp890
I1
aa(lp891
I1
aa(lp892
I1
aa(lp893
I1
aa(lp894
I1
aa(lp895
I1
aa(lp896
I1
aa(lp897
I1
aa(lp898
I1
aa(lp899
I1
aa(lp900
I1
aa(lp901
I1
aa(lp902
I1
aa(lp903
I1
aa(lp904
I1
aa(lp905
I1
aa(lp906
I1
aa(lp907
I1
aa(lp908
I1
aa(lp909
I1
aa(lp910
I1
aa(lp911
I1
aa(lp912
I1
aa(lp913
I1
aa(lp914
I1
aa(lp915
I1
aa(lp916
I1
aa(lp917
I1
aa(lp918
I1
aa(lp919
I1
aa(lp920
I1
aa(lp921
I1
aa(lp922
I1
aa(lp923
I1
aa(lp924
I1
aa(lp925
I1
aa(lp926
I1
aa(lp927
I1
aa(lp928
I1
aa(lp929
I1
aa(lp930
I1
aa(lp931
I1
aa(lp932
I1
aa(lp933
I1
aa(lp934
I1
aa(lp935
I1
aa(lp936
I1
aa(lp937
I1
aa(lp938
I1
aa(lp939
I1
aa(lp940
I1
aa(lp941
I1
aa(lp942
I1
aa(lp943
I1
aa(lp944
I1
aa(lp945
I1
aa(lp946
I1
aa(lp947
I1
aa(lp948
I1
aa(lp949
I1
aa(lp950
I1
aa(lp951
I1
aa(lp952
I1
aa(lp953
I1
aa(lp954
I1
aa(lp955
I1
aa(lp956
I1
aa(lp957
I1
aa(lp958
I1
aa(lp959
I1
aa(lp960
I1
aa(lp961
I1
aa(lp962
I1
aa(lp963
I1
aa(lp964
I1
aa(lp965
I1
aa(lp966
I1
aa(lp967
I1
aa(lp968
I1
aa(lp969
I1
aa(lp970
I1
aa(lp971
I1
aa(lp972
I1
aa(lp973
I1
aa(lp974
I1
aa(lp975
I1
aa(lp976
I1
aa(lp977
I1
aa(lp978
I1
aa(lp979
I1
aa(lp980
I1
aa(lp981
I1
aa(lp982
I1
aa(lp983
I1
aa(lp984
I1
aa(lp985
I1
aa(lp986
I1
aa(lp987
I1
aa(lp988
I1
aa(lp989
I1
aa(lp990
I1
aa(lp991
I1
aa(lp992
I1
aa(lp993
I1
aa(lp994
I1
aa(lp995
I1
aa(lp996
I1
aa(lp997
I1
aa(lp998
I1
aa(lp999
I1
aa(lp1000
I1
aa(lp1001
I1
aa(lp1002
I1
aa(lp1003
I1
aa(lp1004
I1
aa(lp1005
I1
aa(lp1006
I1
aa(lp1007
I1
aa(lp1008
I1
aa(lp1009
I1
aa(lp1010
I1
aa(lp1011
I1
aa(lp1012
I1
aa(lp1013
I1
aa(lp1014
I1
aa(lp1015
I1
aa(lp1016
I1
aa(lp1017
I1
aa(lp1018
I1
aa(lp1019
I1
aa(lp1020
I1
aa(lp1021
I1
aa(lp1022
I1
aa(lp1023
I1
aa(lp1024
I1
aa(lp1025
I1
aa(lp1026
I1
aa(lp1027
I1
aa(lp1028
I1
aa(lp1029
I1
aa(lp1030
I1
aa(lp1031
I1
aa(lp1032
I1
aa(lp1033
I1
aa(lp1034
I1
aa(lp1035
I1
aa(lp1036
I1
aa(lp1037
I1
aa(lp1038
I1
aa(lp1039
I1
aa(lp1040
I1
aa(lp1041
I1
aa(lp1042
I1
aa(lp1043
I1
aa(lp1044
I1
aa(lp1045
I1
aa(lp1046
I1
aa(lp1047
I1
aa(lp1048
I1
aa(lp1049
I1
aa(lp1050
I1
aa(lp1051
I1
aa(lp1052
I1
aa(lp1053
I1
aa(lp1054
I1
aa(lp1055
I1
aa(lp1056
I1
aa(lp1057
I1
aa(lp1058
I1
aa(lp1059
I1
aa(lp1060
I1
aa(lp1061
I1
aa(lp1062
I1
aa(lp1063
I1
aa(lp1064
I1
aa(lp1065
I1
aa(lp1066
I1
aa(lp1067
I1
aa(lp1068
I1
aa(lp1069
I1
aa(lp1070
I1
aa(lp1071
I1
aa(lp1072
I1
aa(lp1073
I1
aa(lp1074
I1
aa(lp1075
I1
aa(lp1076
I1
aa(lp1077
I1
aa(lp1078
I1
aa(lp1079
I1
aa(lp1080
I1
aa(lp1081
I1
aa(lp1082
I1
aa(lp1083
I1
aa(lp1084
I1
aa(lp1085
I1
aa(lp1086
I1
aa(lp1087
I1
aa(lp1088
I1
aa(lp1089
I1
aa(lp1090
I1
aa(lp1091
I1
aa(lp1092
I1
aa(lp1093
I1
aa(lp1094
I1
aa(lp1095
I1
aa(lp1096
I1
aa(lp1097
I1
aa(lp1098
I1
aa(lp1099
I1
aa(lp1100
I1
aa(lp1101
I1
aa(lp1102
I1
aa(lp1103
I1
aa(lp1104
I1
aa(lp1105
I1
aa(lp1106
I1
aa(lp1107
I1
aa(lp1108
I1
aa(lp1109
I1
aa(lp1110
I1
aa(lp1111
I1
aa(lp1112
I1
aa(lp1113
I1
aa(lp1114
I1
aa(lp1115
I1
aa(lp1116
I1
aa(lp1117
I1
aa(lp1118
I1
aa(lp1119
I1
aa(lp1120
I1
aa(lp1121
I1
aa(lp1122
I1
aa(lp1123
I1
aa(lp1124
I1
aa(lp1125
I1
aa(lp1126
I1
aa(lp1127
I1
aa(lp1128
I1
aa(lp1129
I1
aa(lp1130
I1
aa(lp1131
I1
aa(lp1132
I1
aa(lp1133
I1
aa(lp1134
I1
aa(lp1135
I1
aa(lp1136
I1
aa(lp1137
I1
aa(lp1138
I1
aa(lp1139
I1
aa(lp1140
I1
aa(lp1141
I1
aa(lp1142
I1
aa(lp1143
I1
aa(lp1144
I1
aa(lp1145
I1
aa(lp1146
I1
aa(lp1147
I1
aa(lp1148
I1
aa(lp1149
I1
aa(lp1150
I1
aa(lp1151
I1
aa(lp1152
I1
aa(lp1153
I1
aa(lp1154
I1
aa(lp1155
I1
aa(lp1156
I1
aa(lp1157
I1
aa(lp1158
I1
aa(lp1159
I1
aa(lp1160
I1
aa(lp1161
I1
aa(lp1162
I1
aa(lp1163
I1
aa(lp1164
I1
aa(lp1165
I1
aa(lp1166
I1
aa(lp1167
I1
aa(lp1168
I1
aa(lp1169
I1
aa(lp1170
I1
aa(lp1171
I1
aa(lp1172
I1
aa(lp1173
I1
aa(lp1174
I1
aa(lp1175
I1
aa(lp1176
I1
aa(lp1177
I1
aa(lp1178
I1
aa(lp1179
I1
aa(lp1180
I1
aa(lp1181
I1
aa(lp1182
I1
aa(lp1183
I1
aa(lp1184
I1
aa(lp1185
I1
aa(lp1186
I1
aa(lp1187
I1
aa(lp1188
I1
aa(lp1189
I1
aa(lp1190
I1
aa(lp1191
I1
aa(lp1192
I1
aa(lp1193
I1
aa(lp1194
I1
aa(lp1195
I1
aa(lp1196
I1
aa(lp1197
I1
aa(lp1198
I1
aa(lp1199
I1
aa(lp1200
I1
aa(lp1201
I1
aa(lp1202
I1
aa(lp1203
I1
aa(lp1204
I1
aa(lp1205
I1
aa(lp1206
I1
aa(lp1207
I1
aa(lp1208
I1
aa(lp1209
I1
aa(lp1210
I1
aa(lp1211
I1
aa(lp1212
I1
aa(lp1213
I1
aa(lp1214
I1
aa(lp1215
I1
aa(lp1216
I1
aa(lp1217
I1
aa(lp1218
I1
aa(lp1219
I1
aa(lp1220
I1
aa(lp1221
I1
aa(lp1222
I1
aa(lp1223
I1
aa(lp1224
I1
aa(lp1225
I1
aa(lp1226
I1
aa(lp1227
I1
aa(lp1228
I1
aa(lp1229
I1
aa(lp1230
I1
aa(lp1231
I1
aa(lp1232
I1
aa(lp1233
I1
aa(lp1234
I1
aa(lp1235
I1
aa(lp1236
I1
aa(lp1237
I1
aa(lp1238
I1
aa(lp1239
I1
aa(lp1240
I1
aa(lp1241
I1
aa(lp1242
I1
aa(lp1243
I1
aa(lp1244
I1
aa(lp1245
I1
aa(lp1246
I1
aa(lp1247
I1
aa(lp1248
I1
aa(lp1249
I1
aa(lp1250
I1
aa(lp1251
I1
aa(lp1252
I1
aa(lp1253
I1
aa(lp1254
I1
aa(lp1255
I1
aa(lp1256
I1
aa(lp1257
I1
aa(lp1258
I1
aa(lp1259
I1
aa(lp1260
I1
aa(lp1261
I1
aa(lp1262
I1
aa(lp1263
I1
aa(lp1264
I1
aa(lp1265
I1
aa(lp1266
I1
aa(lp1267
I1
aa(lp1268
I1
aa(lp1269
I1
aa(lp1270
I1
aa(lp1271
I1
aa(lp1272
I1
aa(lp1273
I1
aa(lp1274
I1
aa(lp1275
I1
aa(lp1276
I1
aa(lp1277
I1
aa(lp1278
I1
aa(lp1279
I1
aa(lp1280
I1
aa(lp1281
I1
aa(lp1282
I1
aa(lp1283
I1
aa(lp1284
I1
aa(lp1285
I1
aa(lp1286
I1
aa(lp1287
I1
aa(lp1288
I1
aa(lp1289
I1
aa(lp1290
I1
aa(lp1291
I1
aa(lp1292
I1
aa(lp1293
I1
aa(lp1294
I1
aa(lp1295
I1
aa(lp1296
I1
aa(lp1297
I1
aa(lp1298
I1
aa(lp1299
I1
aa(lp1300
I1
aa(lp1301
I1
aa(lp1302
I1
aa(lp1303
I1
aa(lp1304
I1
aa(lp1305
I1
aa(lp1306
I1
aa(lp1307
I1
aa(lp1308
I1
aa(lp1309
I1
aa(lp1310
I1
aa(lp1311
I1
aa(lp1312
I1
aa(lp1313
I1
aa(lp1314
I1
aa(lp1315
I1
aa(lp1316
I1
aa(lp1317
I1
aa(lp1318
I1
aa(lp1319
I1
aa(lp1320
I1
aa(lp1321
I1
aa(lp1322
I1
aa(lp1323
I1
aa(lp1324
I1
aa(lp1325
I1
aa(lp1326
I1
aa(lp1327
I1
aa(lp1328
I1
aa(lp1329
I1
aa(lp1330
I1
aa(lp1331
I1
aa(lp1332
I1
aa(lp1333
I1
aa(lp1334
I1
aa(lp1335
I1
aa(lp1336
I1
aa(lp1337
I1
aa(lp1338
I1
aa(lp1339
I1
aa(lp1340
I1
aa(lp1341
I1
aa(lp1342
I1
aa(lp1343
I1
aa(lp1344
I1
aa(lp1345
I1
aa(lp1346
I1
aa(lp1347
I1
aa(lp1348
I1
aa(lp1349
I1
aa(lp1350
I1
aa(lp1351
I1
aa(lp1352
I1
aa(lp1353
I1
aa(lp1354
I1
aa(lp1355
I1
aa(lp1356
I1
aa(lp1357
I1
aa(lp1358
I1
aa(lp1359
I1
aa(lp1360
I1
aa(lp1361
I1
aa(lp1362
I1
aa(lp1363
I1
aa(lp1364
I1
aa(lp1365
I1
aa(lp1366
I1
aa(lp1367
I1
aa(lp1368
I1
aa(lp1369
I1
aa(lp1370
I1
aa(lp1371
I1
aa(lp1372
I1
aa(lp1373
I1
aa(lp1374
I1
aa(lp1375
I1
aa(lp1376
I1
aa(lp1377
I1
aa(lp1378
I1
aa(lp1379
I1
aa(lp1380
I1
aa(lp1381
I1
aa(lp1382
I1
aa(lp1383
I1
aa(lp1384
I1
aa(lp1385
I1
aa(lp1386
I1
aa(lp1387
I1
aa(lp1388
I1
aa(lp1389
I1
aa(lp1390
I1
aa(lp1391
I1
aa(lp1392
I1
aa(lp1393
I1
aa(lp1394
I1
aa(lp1395
I1
aa(lp1396
I1
aa(lp1397
I1
aa(lp1398
I1
aa(lp1399
I1
aa(lp1400
I1
aa(lp1401
I1
aa(lp1402
I1
aa(lp1403
I1
aa(lp1404
I1
aa(lp1405
I1
aa(lp1406
I1
aa(lp1407
I1
aa(lp1408
I1
aa(lp1409
I1
aa(lp1410
I1
aa(lp1411
I1
aa(lp1412
I1
aa(lp1413
I1
aa(lp1414
I1
aa(lp1415
I1
aa(lp1416
I1
aa(lp1417
I1
aa(lp1418
I1
aa(lp1419
I1
aa(lp1420
I1
aa(lp1421
I1
aa(lp1422
I1
aa(lp1423
I1
aa(lp1424
I1
aa(lp1425
I1
aa(lp1426
I1
aa(lp1427
I1
aa(lp1428
I1
aa(lp1429
I1
aa(lp1430
I1
aa(lp1431
I1
aa(lp1432
I1
aa(lp1433
I1
aa(lp1434
I1
aa(lp1435
I1
aa(lp1436
I1
aa(lp1437
I1
aa(lp1438
I1
aa(lp1439
I1
aa(lp1440
I1
aa(lp1441
I1
aa(lp1442
I1
aa(lp1443
I1
aa(lp1444
I1
aa(lp1445
I1
aa(lp1446
I1
aa(lp1447
I1
aa(lp1448
I1
aa(lp1449
I1
aa(lp1450
I1
aa(lp1451
I1
aa(lp1452
I1
aa(lp1453
I1
aa(lp1454
I1
aa(lp1455
I1
aa(lp1456
I1
aa(lp1457
I1
aa(lp1458
I1
aa(lp1459
I1
aa(lp1460
I1
aa(lp1461
I1
aa(lp1462
I1
aa(lp1463
I1
aa(lp1464
I1
aa(lp1465
I1
aa(lp1466
I1
aa(lp1467
I1
aa(lp1468
I1
aa(lp1469
I1
aa(lp1470
I1
aa(lp1471
I1
aa(lp1472
I1
aa(lp1473
I1
aa(lp1474
I1
aa(lp1475
I1
aa(lp1476
I1
aa(lp1477
I1
aa(lp1478
I1
aa(lp1479
I1
aa(lp1480
I1
aa(lp1481
I1
aa(lp1482
I1
aa(lp1483
I1
aa(lp1484
I1
aa(lp1485
I1
aa(lp1486
I1
aa(lp1487
I1
aa(lp1488
I1
aa(lp1489
I1
aa(lp1490
I1
aa(lp1491
I1
aa(lp1492
I1
aa(lp1493
I1
aa(lp1494
I1
aa(lp1495
I1
aa(lp1496
I1
aa(lp1497
I1
aa(lp1498
I1
aa(lp1499
I1
aa(lp1500
I1
aa(lp1501
I1
aa(lp1502
I1
aa(lp1503
I1
aa(lp1504
I1
aa(lp1505
I1
aa(lp1506
I1
aa(lp1507
I1
aa(lp1508
I1
aa(lp1509
I1
aa(lp1510
I1
aa(lp1511
I1
aa(lp1512
I1
aa(lp1513
I1
aa(lp1514
I1
aa(lp1515
I1
aa(lp1516
I1
aa(lp1517
I1
aa(lp1518
I1
aa(lp1519
I1
aa(lp1520
I1
aa(lp1521
I1
aa(lp1522
I1
aa(lp1523
I1
aa(lp1524
I1
aa(lp1525
I1
aa(lp1526
I1
aa(lp1527
I1
aa(lp1528
I1
aa(lp1529
I1
aa(lp1530
I1
aa(lp1531
I1
aa(lp1532
I1
aa(lp1533
I1
aa(lp1534
I1
aa(lp1535
I1
aa(lp1536
I1
aa(lp1537
I1
aa(lp1538
I1
aa(lp1539
I1
aa(lp1540
I1
aa(lp1541
I1
aa(lp1542
I1
aa(lp1543
I1
aa(lp1544
I1
aa(lp1545
I1
aa(lp1546
I1
aa(lp1547
I1
aa(lp1548
I1
aa(lp1549
I1
aa(lp1550
I1
aa(lp1551
I1
aa(lp1552
I1
aa(lp1553
I1
aa(lp1554
I1
aa(lp1555
I1
aa(lp1556
I1
aa(lp1557
I1
aa(lp1558
I1
aa(lp1559
I1
aa(lp1560
I1
aa(lp1561
I1
aa(lp1562
I1
aa(lp1563
I1
aa(lp1564
I1
aa(lp1565
I1
aa(lp1566
I1
aa(lp1567
I1
aa(lp1568
I1
aa(lp1569
I1
aa(lp1570
I1
aa(lp1571
I1
aa(lp1572
I1
aa(lp1573
I1
aa(lp1574
I1
aa(lp1575
I1
aa(lp1576
I1
aa(lp1577
I1
aa(lp1578
I1
aa(lp1579
I1
aa(lp1580
I1
aa(lp1581
I1
aa(lp1582
I1
aa(lp1583
I1
aa(lp1584
I1
aa(lp1585
I1
aa(lp1586
I1
aa(lp1587
I1
aa(lp1588
I1
aa(lp1589
I1
aa(lp1590
I1
aa(lp1591
I1
aa(lp1592
I1
aa(lp1593
I1
aa(lp1594
I1
aa(lp1595
I1
aa(lp1596
I1
aa(lp1597
I1
aa(lp1598
I1
aa(lp1599
I1
aa(lp1600
I1
aa(lp1601
I1
aa(lp1602
I1
aa(lp1603
I1
aa(lp1604
I1
aa(lp1605
I1
aa(lp1606
I1
aa(lp1607
I1
aa(lp1608
I1
aa(lp1609
I1
aa(lp1610
I1
aa(lp1611
I1
aa(lp1612
I1
aa(lp1613
I1
aa(lp1614
I1
aa(lp1615
I1
aa(lp1616
I1
aa(lp1617
I1
aa(lp1618
I1
aa(lp1619
I1
aa(lp1620
I1
aa(lp1621
I1
aa(lp1622
I1
aa(lp1623
I1
aa(lp1624
I1
aa(lp1625
I1
aa(lp1626
I1
aa(lp1627
I1
aa(lp1628
I1
aa(lp1629
I1
aa(lp1630
I1
aa(lp1631
I1
aa(lp1632
I1
aa(lp1633
I1
aa(lp1634
I1
aa(lp1635
I1
aa(lp1636
I1
aa(lp1637
I1
aa(lp1638
I1
aa(lp1639
I1
aa(lp1640
I1
aa(lp1641
I1
aa(lp1642
I1
aa(lp1643
I1
aa(lp1644
I1
aa(lp1645
I1
aa(lp1646
I1
aa(lp1647
I1
aa(lp1648
I1
aa(lp1649
I1
aa(lp1650
I1
aa(lp1651
I1
aa(lp1652
I1
aa(lp1653
I1
aa(lp1654
I1
aa(lp1655
I1
aa(lp1656
I1
aa(lp1657
I1
aa(lp1658
I1
aa(lp1659
I1
aa(lp1660
I1
aa(lp1661
I1
aa(lp1662
I1
aa(lp1663
I1
aa(lp1664
I1
aa(lp1665
I1
aa(lp1666
I1
aa(lp1667
I1
aa(lp1668
I1
aa(lp1669
I1
aa(lp1670
I1
aa(lp1671
I1
aa(lp1672
I1
aa(lp1673
I1
aa(lp1674
I1
aa(lp1675
I1
aa(lp1676
I1
aa(lp1677
I1
aa(lp1678
I1
aa(lp1679
I1
aa(lp1680
I1
aa(lp1681
I1
aa(lp1682
I1
aa(lp1683
I1
aa(lp1684
I1
aa(lp1685
I1
aa(lp1686
I1
aa(lp1687
I1
aa(lp1688
I1
aa(lp1689
I1
aa(lp1690
I1
aa(lp1691
I1
aa(lp1692
I1
aa(lp1693
I1
aa(lp1694
I1
aa(lp1695
I1
aa(lp1696
I1
aa(lp1697
I1
aa(lp1698
I1
aa(lp1699
I1
aa(lp1700
I1
aa(lp1701
I1
aa(lp1702
I1
aa(lp1703
I1
aa(lp1704
I1
aa(lp1705
I1
aa(lp1706
I1
aa(lp1707
I1
aa(lp1708
I1
aa(lp1709
I1
aa(lp1710
I1
aa(lp1711
I1
aa(lp1712
I1
aa(lp1713
I1
aa(lp1714
I1
aa(lp1715
I1
aa(lp1716
I1
aa(lp1717
I1
aa(lp1718
I1
aa(lp1719
I1
aa(lp1720
I1
aa(lp1721
I1
aa(lp1722
I1
aa(lp1723
I1
aa(lp1724
I1
aa(lp1725
I1
aa(lp1726
I1
aa(lp1727
I1
aa(lp1728
I1
aa(lp1729
I1
aa(lp1730
I1
aa(lp1731
I1
aa(lp1732
I1
aa(lp1733
I1
aa(lp1734
I1
aa(lp1735
I1
aa(lp1736
I1
aa(lp1737
I1
aa(lp1738
I1
aa(lp1739
I1
aa(lp1740
I1
aa(lp1741
I1
aa(lp1742
I1
aa(lp1743
I1
aa(lp1744
I1
aa(lp1745
I1
aa(lp1746
I1
aa(lp1747
I1
aa(lp1748
I1
aa(lp1749
I1
aa(lp1750
I1
aa(lp1751
I1
aa(lp1752
I1
aa(lp1753
I1
aa(lp1754
I1
aa(lp1755
I1
aa(lp1756
I1
aa(lp1757
I1
aa(lp1758
I1
aa(lp1759
I1
aa(lp1760
I1
aa(lp1761
I1
aa(lp1762
I1
aa(lp1763
I1
aa(lp1764
I1
aa(lp1765
I1
aa(lp1766
I1
aa(lp1767
I1
aa(lp1768
I1
aa(lp1769
I1
aa(lp1770
I1
aa(lp1771
I1
aa(lp1772
I1
aa(lp1773
I1
aa(lp1774
I1
aa(lp1775
I1
aa(lp1776
I1
aa(lp1777
I1
aa(lp1778
I1
aa(lp1779
I1
aa(lp1780
I1
aa(lp1781
I1
aa(lp1782
I1
aa(lp1783
I1
aa(lp1784
I1
aa(lp1785
I1
aa(lp1786
I1
aa(lp1787
I1
aa(lp1788
I1
aa(lp1789
I1
aa(lp1790
I1
aa(lp1791
I1
aa(lp1792
I1
aa(lp1793
I1
aa(lp1794
I1
aa(lp1795
I1
aa(lp1796
I1
aa(lp1797
I1
aa(lp1798
I1
aa(lp1799
I1
aa(lp1800
I1
aa(lp1801
I1
aa(lp1802
I1
aa(lp1803
I1
aa(lp1804
I1
aa(lp1805
I1
aa(lp1806
I1
aa(lp1807
I1
aa(lp1808
I1
aa(lp1809
I1
aa(lp1810
I1
aa(lp1811
I1
aa(lp1812
I1
aa(lp1813
I1
aa(lp1814
I1
aa(lp1815
I1
aa(lp1816
I1
aa(lp1817
I1
aa(lp1818
I1
aa(lp1819
I1
aa(lp1820
I1
aa(lp1821
I1
aa(lp1822
I1
aa(lp1823
I1
aa(lp1824
I1
aa(lp1825
I1
aa(lp1826
I1
aa(lp1827
I1
aa(lp1828
I1
aa(lp1829
I1
aa(lp1830
I1
aa(lp1831
I1
aa(lp1832
I1
aa(lp1833
I1
aa(lp1834
I1
aa(lp1835
I1
aa(lp1836
I1
aa(lp1837
I1
aa(lp1838
I1
aa(lp1839
I1
aa(lp1840
I1
aa(lp1841
I1
aa(lp1842
I1
aa(lp1843
I1
aa(lp1844
I1
aa(lp1845
I1
aa(lp1846
I1
aa(lp1847
I1
aa(lp1848
I1
aa(lp1849
I1
aa(lp1850
I1
aa(lp1851
I1
aa(lp1852
I1
aa(lp1853
I1
aa(lp1854
I1
aa(lp1855
I1
aa(lp1856
I1
aa(lp1857
I1
aa(lp1858
I1
aa(lp1859
I1
aa(lp1860
I1
aa(lp1861
I1
aa(lp1862
I1
aa(lp1863
I1
aa(lp1864
I1
aa(lp1865
I1
aa(lp1866
I1
aa(lp1867
I1
aa(lp1868
I1
aa(lp1869
I1
aa(lp1870
I1
aa(lp1871
I1
aa(lp1872
I1
aa(lp1873
I1
aa(lp1874
I1
aa(lp1875
I1
aa(lp1876
I1
aa(lp1877
I1
aa(lp1878
I1
aa(lp1879
I1
aa(lp1880
I1
aa(lp1881
I1
aa(lp1882
I1
aa(lp1883
I1
aa(lp1884
I1
aa(lp1885
I1
aa(lp1886
I1
aa(lp1887
I1
aa(lp1888
I1
aa(lp1889
I1
aa(lp1890
I1
aa(lp1891
I1
aa(lp1892
I1
aa(lp1893
I1
aa(lp1894
I1
aa(lp1895
I1
aa(lp1896
I1
aa(lp1897
I1
aa(lp1898
I1
aa(lp1899
I1
aa(lp1900
I1
aa(lp1901
I1
aa(lp1902
I1
aa(lp1903
I1
aa(lp1904
I1
aa(lp1905
I1
aa(lp1906
I1
aa(lp1907
I1
aa(lp1908
I1
aa(lp1909
I1
aa(lp1910
I1
aa(lp1911
I1
aa(lp1912
I1
aa(lp1913
I1
aa(lp1914
I1
aa(lp1915
I1
aa(lp1916
I1
aa(lp1917
I1
aa(lp1918
I1
aa(lp1919
I1
aa(lp1920
I1
aa(lp1921
I1
aa(lp1922
I1
aa(lp1923
I1
aa(lp1924
I1
aa(lp1925
I1
aa(lp1926
I1
aa(lp1927
I1
aa(lp1928
I1
aa(lp1929
I1
aa(lp1930
I1
aa(lp1931
I1
aa(lp1932
I1
aa(lp1933
I1
aa(lp1934
I1
aa(lp1935
I1
aa(lp1936
I1
aa(lp1937
I1
aa(lp1938
I1
aa(lp1939
I1
aa(lp1940
I1
aa(lp1941
I1
aa(lp1942
I1
aa(lp1943
I1
aa(lp1944
I0
aa(lp1945
I0
aa(lp1946
I0
aa(lp1947
I0
aa(lp1948
I0
aa(lp1949
I0
aa(lp1950
I0
aa(lp1951
I0
aa(lp1952
I0
aa(lp1953
I0
aa(lp1954
I0
aa(lp1955
I0
aa(lp1956
I0
aa(lp1957
I0
aa(lp1958
I0
aa(lp1959
I0
aa(lp1960
I0
aa(lp1961
I0
aa(lp1962
I0
aa(lp1963
I0
aa(lp1964
I0
aa(lp1965
I0
aa(lp1966
I0
aa(lp1967
I0
aa(lp1968
I0
aa(lp1969
I0
aa(lp1970
I0
aa(lp1971
I0
aa(lp1972
I0
aa(lp1973
I0
aa(lp1974
I0
aa(lp1975
I0
aa(lp1976
I0
aa(lp1977
I0
aa(lp1978
I0
aa(lp1979
I0
aa(lp1980
I0
aa(lp1981
I0
aa(lp1982
I0
aa(lp1983
I0
aa(lp1984
I0
aa(lp1985
I0
aa(lp1986
I0
aa(lp1987
I0
aa(lp1988
I0
aa(lp1989
I0
aa(lp1990
I0
aa(lp1991
I0
aa(lp1992
I0
aa(lp1993
I0
aa(lp1994
I0
aa(lp1995
I0
aa(lp1996
I0
aa(lp1997
I0
aa(lp1998
I0
aa(lp1999
I0
aa(lp2000
I0
aa(lp2001
I0
aa(lp2002
I0
aa(lp2003
I0
aa(lp2004
I0
aa(lp2005
I0
aa(lp2006
I0
aa(lp2007
I0
aa(lp2008
I0
aa(lp2009
I0
aa(lp2010
I0
aa(lp2011
I0
aa(lp2012
I0
aa(lp2013
I0
aa(lp2014
I0
aa(lp2015
I0
aa(lp2016
I0
aa(lp2017
I0
aa(lp2018
I0
aa(lp2019
I0
aa(lp2020
I0
aa(lp2021
I0
aa(lp2022
I0
aa(lp2023
I0
aa(lp2024
I0
aa(lp2025
I0
aa(lp2026
I0
aa(lp2027
I0
aa(lp2028
I0
aa(lp2029
I0
aa(lp2030
I0
aa(lp2031
I0
aa(lp2032
I0
aa(lp2033
I0
aa(lp2034
I0
aa(lp2035
I0
aa(lp2036
I0
aa(lp2037
I0
aa(lp2038
I0
aa(lp2039
I0
aa(lp2040
I0
aa(lp2041
I0
aa(lp2042
I0
aa(lp2043
I0
aa(lp2044
I0
aa(lp2045
I0
aa(lp2046
I0
aa(lp2047
I0
aa(lp2048
I0
aa(lp2049
I0
aa(lp2050
I0
aa(lp2051
I0
aa(lp2052
I0
aa(lp2053
I0
aa(lp2054
I0
aa(lp2055
I0
aa(lp2056
I0
aa(lp2057
I0
aa(lp2058
I0
aa(lp2059
I0
aa(lp2060
I0
aa(lp2061
I0
aa(lp2062
I0
aa(lp2063
I0
aa(lp2064
I0
aa(lp2065
I0
aa(lp2066
I0
aa(lp2067
I0
aa(lp2068
I0
aa(lp2069
I0
aa(lp2070
I0
aa(lp2071
I0
aa(lp2072
I0
aa(lp2073
I0
aa(lp2074
I0
aa(lp2075
I0
aa(lp2076
I0
aa(lp2077
I0
aa(lp2078
I0
aa(lp2079
I0
aa(lp2080
I0
aa(lp2081
I0
aa(lp2082
I0
aa(lp2083
I0
aa(lp2084
I0
aa(lp2085
I0
aa(lp2086
I0
aa(lp2087
I0
aa(lp2088
I0
aa(lp2089
I0
aa(lp2090
I0
aa(lp2091
I0
aa(lp2092
I0
aa(lp2093
I0
aa(lp2094
I0
aa(lp2095
I0
aa(lp2096
I0
aa(lp2097
I0
aa(lp2098
I0
aa(lp2099
I0
aa(lp2100
I0
aa(lp2101
I0
aa(lp2102
I0
aa(lp2103
I0
aa(lp2104
I0
aa(lp2105
I0
aa(lp2106
I0
aa(lp2107
I0
aa(lp2108
I0
aa(lp2109
I0
aa(lp2110
I0
aa(lp2111
I0
aa(lp2112
I0
aa(lp2113
I0
aa(lp2114
I0
aa(lp2115
I0
aa(lp2116
I0
aa(lp2117
I0
aa(lp2118
I0
aa(lp2119
I0
aa(lp2120
I0
aa(lp2121
I0
aa(lp2122
I0
aa(lp2123
I0
aa(lp2124
I0
aa(lp2125
I0
aa(lp2126
I0
aa(lp2127
I0
aa(lp2128
I0
aa(lp2129
I0
aa(lp2130
I0
aa(lp2131
I0
aa(lp2132
I0
aa(lp2133
I0
aa(lp2134
I0
aa(lp2135
I0
aa(lp2136
I0
aa(lp2137
I0
aa(lp2138
I0
aa(lp2139
I0
aa(lp2140
I0
aa(lp2141
I0
aa(lp2142
I0
aa(lp2143
I0
aa(lp2144
I0
aa(lp2145
I0
aa(lp2146
I0
aa(lp2147
I0
aa(lp2148
I0
aa(lp2149
I0
aa(lp2150
I0
aa(lp2151
I0
aa(lp2152
I0
aa(lp2153
I0
aa(lp2154
I0
aa(lp2155
I0
aa(lp2156
I0
aa(lp2157
I0
aa(lp2158
I0
aa(lp2159
I0
aa(lp2160
I0
aa(lp2161
I0
aa(lp2162
I0
aa(lp2163
I0
aa(lp2164
I0
aa(lp2165
I0
aa(lp2166
I0
aa(lp2167
I0
aa(lp2168
I0
aa(lp2169
I0
aa(lp2170
I0
aa(lp2171
I0
aa(lp2172
I0
aa(lp2173
I0
aa(lp2174
I0
aa(lp2175
I0
aa(lp2176
I0
aa(lp2177
I0
aa(lp2178
I0
aa(lp2179
I0
aa(lp2180
I0
aa(lp2181
I0
aa(lp2182
I0
aa(lp2183
I0
aa(lp2184
I0
aa(lp2185
I0
aa(lp2186
I0
aa(lp2187
I0
aa(lp2188
I0
aa(lp2189
I0
aa(lp2190
I0
aa(lp2191
I0
aa(lp2192
I0
aa(lp2193
I0
aa(lp2194
I0
aa(lp2195
I0
aa(lp2196
I0
aa(lp2197
I0
aa(lp2198
I0
aa(lp2199
I0
aa(lp2200
I0
aa(lp2201
I0
aa(lp2202
I0
aa(lp2203
I0
aa(lp2204
I0
aa(lp2205
I0
aa(lp2206
I0
aa(lp2207
I0
aa(lp2208
I0
aa(lp2209
I0
aa(lp2210
I0
aa(lp2211
I0
aa(lp2212
I0
aa(lp2213
I0
aa(lp2214
I0
aa(lp2215
I0
aa(lp2216
I0
aa(lp2217
I0
aa(lp2218
I0
aa(lp2219
I0
aa(lp2220
I0
aa(lp2221
I0
aa(lp2222
I0
aa(lp2223
I0
aa(lp2224
I0
aa(lp2225
I0
aa(lp2226
I0
aa(lp2227
I0
aa(lp2228
I0
aa(lp2229
I0
aa(lp2230
I0
aa(lp2231
I0
aa(lp2232
I0
aa(lp2233
I0
aa(lp2234
I0
aa(lp2235
I0
aa(lp2236
I0
aa(lp2237
I0
aa(lp2238
I0
aa(lp2239
I0
aa(lp2240
I0
aa(lp2241
I0
aa(lp2242
I0
aa(lp2243
I0
aa(lp2244
I0
aa(lp2245
I0
aa(lp2246
I0
aa(lp2247
I0
aa(lp2248
I0
aa(lp2249
I0
aa(lp2250
I0
aa(lp2251
I0
aa(lp2252
I0
aa(lp2253
I0
aa(lp2254
I0
aa(lp2255
I0
aa(lp2256
I0
aa(lp2257
I0
aa(lp2258
I0
aa(lp2259
I0
aa(lp2260
I0
aa(lp2261
I0
aa(lp2262
I0
aa(lp2263
I0
aa(lp2264
I0
aa(lp2265
I0
aa(lp2266
I0
aa(lp2267
I0
aa(lp2268
I0
aa(lp2269
I0
aa(lp2270
I0
aa(lp2271
I0
aa(lp2272
I0
aa(lp2273
I0
aa(lp2274
I0
aa(lp2275
I0
aa(lp2276
I0
aa(lp2277
I0
aa(lp2278
I0
aa(lp2279
I0
aa(lp2280
I0
aa(lp2281
I0
aa(lp2282
I0
aa(lp2283
I0
aa(lp2284
I0
aa(lp2285
I0
aa(lp2286
I0
aa(lp2287
I0
aa(lp2288
I0
aa(lp2289
I0
aa(lp2290
I0
aa(lp2291
I0
aa(lp2292
I0
aa(lp2293
I0
aa(lp2294
I0
aa(lp2295
I0
aa(lp2296
I0
aa(lp2297
I0
aa(lp2298
I0
aa(lp2299
I0
aa(lp2300
I0
aa(lp2301
I0
aa(lp2302
I0
aa(lp2303
I0
aa(lp2304
I0
aa(lp2305
I0
aa(lp2306
I0
aa(lp2307
I0
aa(lp2308
I0
aa(lp2309
I0
aa(lp2310
I0
aa(lp2311
I0
aa(lp2312
I0
aa(lp2313
I0
aa(lp2314
I0
aa(lp2315
I0
aa(lp2316
I0
aa(lp2317
I0
aa(lp2318
I0
aa(lp2319
I0
aa(lp2320
I0
aa(lp2321
I0
aa(lp2322
I0
aa(lp2323
I0
aa(lp2324
I0
aa(lp2325
I0
aa(lp2326
I0
aa(lp2327
I0
aa(lp2328
I0
aa(lp2329
I0
aa(lp2330
I0
aa(lp2331
I0
aa(lp2332
I0
aa(lp2333
I0
aa(lp2334
I0
aa(lp2335
I0
aa(lp2336
I0
aa(lp2337
I0
aa(lp2338
I0
aa(lp2339
I0
aa(lp2340
I0
aa(lp2341
I0
aa(lp2342
I0
aa(lp2343
I0
aa(lp2344
I0
aa(lp2345
I0
aa(lp2346
I0
aa(lp2347
I0
aa(lp2348
I0
aa(lp2349
I0
aa(lp2350
I0
aa(lp2351
I0
aa(lp2352
I0
aa(lp2353
I0
aa(lp2354
I0
aa(lp2355
I0
aa(lp2356
I0
aa(lp2357
I0
aa(lp2358
I0
aa(lp2359
I0
aa(lp2360
I0
aa(lp2361
I0
aa(lp2362
I0
aa(lp2363
I0
aa(lp2364
I0
aa(lp2365
I0
aa(lp2366
I0
aa(lp2367
I0
aa(lp2368
I0
aa(lp2369
I0
aa(lp2370
I0
aa(lp2371
I0
aa(lp2372
I0
aa(lp2373
I0
aa(lp2374
I0
aa(lp2375
I0
aa(lp2376
I0
aa(lp2377
I0
aa(lp2378
I0
aa(lp2379
I0
aa(lp2380
I0
aa(lp2381
I0
aa(lp2382
I0
aa(lp2383
I0
aa(lp2384
I0
aa(lp2385
I0
aa(lp2386
I0
aa(lp2387
I0
aa(lp2388
I0
aa(lp2389
I0
aa(lp2390
I0
aa(lp2391
I0
aa(lp2392
I0
aa(lp2393
I0
aa(lp2394
I0
aa(lp2395
I0
aa(lp2396
I0
aa(lp2397
I0
aa(lp2398
I0
aa(lp2399
I0
aa(lp2400
I0
aa(lp2401
I0
aa(lp2402
I0
aa(lp2403
I0
aa(lp2404
I0
aa(lp2405
I0
aa(lp2406
I0
aa(lp2407
I0
aa(lp2408
I0
aa(lp2409
I0
aa(lp2410
I0
aa(lp2411
I0
aa(lp2412
I0
aa(lp2413
I0
aa(lp2414
I0
aa(lp2415
I0
aa(lp2416
I0
aa(lp2417
I0
aa(lp2418
I0
aa(lp2419
I0
aa(lp2420
I0
aa(lp2421
I0
aa(lp2422
I0
aa(lp2423
I0
aa(lp2424
I0
aa(lp2425
I0
aa(lp2426
I0
aa(lp2427
I0
aa(lp2428
I0
aa(lp2429
I0
aa(lp2430
I0
aa(lp2431
I0
aa(lp2432
I0
aa(lp2433
I0
aa(lp2434
I0
aa(lp2435
I0
aa(lp2436
I0
aa(lp2437
I0
aa(lp2438
I0
aa(lp2439
I0
aa(lp2440
I0
aa(lp2441
I0
aa(lp2442
I0
aa(lp2443
I0
aa(lp2444
I0
aa(lp2445
I0
aa(lp2446
I0
aa(lp2447
I0
aa(lp2448
I0
aa(lp2449
I0
aa(lp2450
I0
aa(lp2451
I0
aa(lp2452
I0
aa(lp2453
I0
aa(lp2454
I0
aa(lp2455
I0
aa(lp2456
I0
aa(lp2457
I0
aa(lp2458
I0
aa(lp2459
I0
aa(lp2460
I0
aa(lp2461
I0
aa(lp2462
I0
aa(lp2463
I0
aa(lp2464
I0
aa(lp2465
I0
aa(lp2466
I0
aa(lp2467
I0
aa(lp2468
I0
aa(lp2469
I0
aa(lp2470
I0
aa(lp2471
I0
aa(lp2472
I0
aa(lp2473
I0
aa(lp2474
I0
aa(lp2475
I0
aa(lp2476
I0
aa(lp2477
I0
aa(lp2478
I0
aa(lp2479
I0
aa(lp2480
I0
aa(lp2481
I0
aa(lp2482
I0
aa(lp2483
I0
aa(lp2484
I0
aa(lp2485
I0
aa(lp2486
I0
aa(lp2487
I0
aa(lp2488
I0
aa(lp2489
I0
aa(lp2490
I0
aa(lp2491
I0
aa(lp2492
I0
aa(lp2493
I0
aa(lp2494
I0
aa(lp2495
I0
aa(lp2496
I0
aa(lp2497
I0
aa(lp2498
I0
aa(lp2499
I0
aa(lp2500
I0
aa(lp2501
I0
aa(lp2502
I0
aa(lp2503
I0
aa(lp2504
I0
aa(lp2505
I0
aa(lp2506
I0
aa(lp2507
I0
aa(lp2508
I0
aa(lp2509
I0
aa(lp2510
I0
aa(lp2511
I0
aa(lp2512
I0
aa(lp2513
I0
aa(lp2514
I0
aa(lp2515
I0
aa(lp2516
I0
aa(lp2517
I0
aa(lp2518
I0
aa(lp2519
I0
aa(lp2520
I0
aa(lp2521
I0
aa(lp2522
I0
aa(lp2523
I0
aa(lp2524
I0
aa(lp2525
I0
aa(lp2526
I0
aa(lp2527
I0
aa(lp2528
I0
aa(lp2529
I0
aa(lp2530
I0
aa(lp2531
I0
aa(lp2532
I0
aa(lp2533
I0
aa(lp2534
I0
aa(lp2535
I0
aa(lp2536
I0
aa(lp2537
I0
aa(lp2538
I0
aa(lp2539
I0
aa(lp2540
I0
aa(lp2541
I0
aa(lp2542
I0
aa(lp2543
I0
aa(lp2544
I0
aa(lp2545
I0
aa(lp2546
I0
aa(lp2547
I0
aa(lp2548
I0
aa(lp2549
I0
aa(lp2550
I0
aa(lp2551
I0
aa(lp2552
I0
aa(lp2553
I0
aa(lp2554
I0
aa(lp2555
I0
aa(lp2556
I0
aa(lp2557
I0
aa(lp2558
I0
aa(lp2559
I0
aa(lp2560
I0
aa(lp2561
I0
aa(lp2562
I0
aa(lp2563
I0
aa(lp2564
I0
aa(lp2565
I0
aa(lp2566
I0
aa(lp2567
I0
aa(lp2568
I0
aa(lp2569
I0
aa(lp2570
I0
aa(lp2571
I0
aa(lp2572
I0
aa(lp2573
I0
aa(lp2574
I0
aa(lp2575
I0
aa(lp2576
I0
aa(lp2577
I0
aa(lp2578
I0
aa(lp2579
I0
aa(lp2580
I0
aa(lp2581
I0
aa(lp2582
I0
aa(lp2583
I0
aa(lp2584
I0
aa(lp2585
I0
aa(lp2586
I0
aa(lp2587
I0
aa(lp2588
I0
aa(lp2589
I0
aa(lp2590
I0
aa(lp2591
I0
aa(lp2592
I0
aa(lp2593
I0
aa(lp2594
I0
aa(lp2595
I0
aa(lp2596
I0
aa(lp2597
I0
aa(lp2598
I0
aa(lp2599
I0
aa(lp2600
I0
aa(lp2601
I0
aa(lp2602
I0
aa(lp2603
I0
aa(lp2604
I0
aa(lp2605
I0
aa(lp2606
I0
aa(lp2607
I0
aa(lp2608
I0
aa(lp2609
I0
aa(lp2610
I0
aa(lp2611
I0
aa(lp2612
I0
aa(lp2613
I0
aa(lp2614
I0
aa(lp2615
I0
aa(lp2616
I0
aa(lp2617
I0
aa(lp2618
I0
aa(lp2619
I0
aa(lp2620
I0
aa(lp2621
I0
aa(lp2622
I0
aa(lp2623
I0
aa(lp2624
I0
aa(lp2625
I0
aa(lp2626
I0
aa(lp2627
I0
aa(lp2628
I0
aa(lp2629
I0
aa(lp2630
I0
aa(lp2631
I0
aa(lp2632
I0
aa(lp2633
I0
aa(lp2634
I0
aa(lp2635
I0
aa(lp2636
I0
aa(lp2637
I0
aa(lp2638
I0
aa(lp2639
I0
aa(lp2640
I0
aa(lp2641
I0
aa(lp2642
I0
aa(lp2643
I0
aa(lp2644
I0
aa(lp2645
I0
aa(lp2646
I0
aa(lp2647
I0
aa(lp2648
I0
aa(lp2649
I0
aa(lp2650
I0
aa(lp2651
I0
aa(lp2652
I0
aa(lp2653
I0
aa(lp2654
I0
aa(lp2655
I0
aa(lp2656
I0
aa(lp2657
I0
aa(lp2658
I0
aa(lp2659
I0
aa(lp2660
I0
aa(lp2661
I0
aa(lp2662
I0
aa(lp2663
I0
aa(lp2664
I0
aa(lp2665
I0
aa(lp2666
I0
aa(lp2667
I0
aa(lp2668
I0
aa(lp2669
I0
aa(lp2670
I0
aa(lp2671
I0
aa(lp2672
I0
aa(lp2673
I0
aa(lp2674
I0
aa(lp2675
I0
aa(lp2676
I0
aa(lp2677
I0
aa(lp2678
I0
aa(lp2679
I0
aa(lp2680
I0
aa(lp2681
I0
aa(lp2682
I0
aa(lp2683
I0
aa(lp2684
I0
aa(lp2685
I0
aa(lp2686
I0
aa(lp2687
I0
aa(lp2688
I0
aa(lp2689
I0
aa(lp2690
I0
aa(lp2691
I0
aa(lp2692
I0
aa(lp2693
I0
aa(lp2694
I0
aa(lp2695
I0
aa(lp2696
I0
aa(lp2697
I0
aa(lp2698
I0
aa(lp2699
I0
aa(lp2700
I0
aa(lp2701
I0
aa(lp2702
I0
aa(lp2703
I0
aa(lp2704
I0
aa(lp2705
I0
aa(lp2706
I0
aa(lp2707
I0
aa(lp2708
I0
aa(lp2709
I0
aa(lp2710
I0
aa(lp2711
I0
aa(lp2712
I0
aa(lp2713
I0
aa(lp2714
I0
aa(lp2715
I0
aa(lp2716
I0
aa(lp2717
I0
aa(lp2718
I0
aa(lp2719
I0
aa(lp2720
I0
aa(lp2721
I0
aa(lp2722
I0
aa(lp2723
I0
aa(lp2724
I0
aa(lp2725
I0
aa(lp2726
I0
aa(lp2727
I0
aa(lp2728
I0
aa(lp2729
I0
aa(lp2730
I0
aa(lp2731
I0
aa(lp2732
I0
aa(lp2733
I0
aa(lp2734
I0
aa(lp2735
I0
aa(lp2736
I0
aa(lp2737
I0
aa(lp2738
I0
aa(lp2739
I0
aa(lp2740
I0
aa(lp2741
I0
aa(lp2742
I0
aa(lp2743
I0
aa(lp2744
I0
aa(lp2745
I0
aa(lp2746
I0
aa(lp2747
I0
aa(lp2748
I0
aa(lp2749
I0
aa(lp2750
I0
aa(lp2751
I0
aa(lp2752
I0
aa(lp2753
I0
aa(lp2754
I0
aa(lp2755
I0
aa(lp2756
I0
aa(lp2757
I0
aa(lp2758
I0
aa(lp2759
I0
aa(lp2760
I0
aa(lp2761
I0
aa(lp2762
I0
aa(lp2763
I0
aa(lp2764
I0
aa(lp2765
I0
aa(lp2766
I0
aa(lp2767
I0
aa(lp2768
I0
aa(lp2769
I0
aa(lp2770
I0
aa(lp2771
I0
aa(lp2772
I0
aa(lp2773
I0
aa(lp2774
I0
aa(lp2775
I0
aa(lp2776
I0
aa(lp2777
I0
aa(lp2778
I0
aa(lp2779
I0
aa(lp2780
I0
aa(lp2781
I0
aa(lp2782
I0
aa(lp2783
I0
aa(lp2784
I0
aa(lp2785
I0
aa(lp2786
I0
aa(lp2787
I0
aa(lp2788
I0
aa(lp2789
I0
aa(lp2790
I0
aa(lp2791
I0
aa(lp2792
I0
aa(lp2793
I0
aa(lp2794
I0
aa(lp2795
I0
aa(lp2796
I0
aa(lp2797
I0
aa(lp2798
I0
aa(lp2799
I0
aa(lp2800
I0
aa(lp2801
I0
aa(lp2802
I0
aa(lp2803
I0
aa(lp2804
I0
aa(lp2805
I0
aa(lp2806
I0
aa(lp2807
I0
aa(lp2808
I0
aa(lp2809
I0
aa(lp2810
I0
aa(lp2811
I0
aa(lp2812
I0
aa(lp2813
I0
aa(lp2814
I0
aa(lp2815
I0
aa(lp2816
I0
aa(lp2817
I0
aa(lp2818
I0
aa(lp2819
I0
aa(lp2820
I0
aa(lp2821
I0
aa(lp2822
I0
aa(lp2823
I0
aa(lp2824
I0
aa(lp2825
I0
aa(lp2826
I0
aa(lp2827
I0
aa(lp2828
I0
aa(lp2829
I0
aa(lp2830
I0
aa(lp2831
I0
aa(lp2832
I0
aa(lp2833
I0
aa(lp2834
I0
aa(lp2835
I0
aa(lp2836
I0
aa(lp2837
I0
aa(lp2838
I0
aa(lp2839
I0
aa(lp2840
I0
aa(lp2841
I0
aa(lp2842
I0
aa(lp2843
I0
aa(lp2844
I0
aa(lp2845
I0
aa(lp2846
I0
aa(lp2847
I0
aa(lp2848
I0
aa(lp2849
I0
aa(lp2850
I0
aa(lp2851
I0
aa(lp2852
I0
aa(lp2853
I0
aa(lp2854
I0
aa(lp2855
I0
aa(lp2856
I0
aa(lp2857
I0
aa(lp2858
I0
aa(lp2859
I0
aa(lp2860
I0
aa(lp2861
I0
aa(lp2862
I0
aa(lp2863
I0
aa(lp2864
I0
aa(lp2865
I0
aa(lp2866
I0
aa(lp2867
I0
aa(lp2868
I0
aa(lp2869
I0
aa(lp2870
I0
aa(lp2871
I0
aa(lp2872
I0
aa(lp2873
I0
aa(lp2874
I0
aa(lp2875
I0
aa(lp2876
I0
aa(lp2877
I0
aa(lp2878
I0
aa(lp2879
I0
aa(lp2880
I0
aa(lp2881
I0
aa(lp2882
I0
aa(lp2883
I0
aa(lp2884
I0
aa(lp2885
I0
aa(lp2886
I0
aa(lp2887
I0
aa(lp2888
I0
aa(lp2889
I0
aa(lp2890
I0
aa(lp2891
I0
aa(lp2892
I0
aa(lp2893
I0
aa(lp2894
I0
aa(lp2895
I0
aa(lp2896
I0
aa(lp2897
I0
aa(lp2898
I0
aa(lp2899
I0
aa(lp2900
I0
aa(lp2901
I0
aa(lp2902
I0
aa(lp2903
I0
aa(lp2904
I0
aa(lp2905
I0
aa(lp2906
I0
aa(lp2907
I0
aa(lp2908
I0
aa(lp2909
I0
aa(lp2910
I0
aa(lp2911
I0
aa(lp2912
I0
aa(lp2913
I0
aa(lp2914
I0
aa(lp2915
I0
aa(lp2916
I0
aa(lp2917
I0
aa(lp2918
I0
aa(lp2919
I0
aa(lp2920
I0
aa(lp2921
I0
aa(lp2922
I0
aa(lp2923
I0
aa(lp2924
I0
aa(lp2925
I0
aa(lp2926
I0
aa(lp2927
I0
aa(lp2928
I0
aa(lp2929
I0
aa(lp2930
I0
aa(lp2931
I0
aa(lp2932
I0
aa(lp2933
I0
aa(lp2934
I0
aa(lp2935
I0
aa(lp2936
I0
aa(lp2937
I0
aa(lp2938
I0
aa(lp2939
I0
aa(lp2940
I0
aa(lp2941
I0
aa(lp2942
I0
aa(lp2943
I0
aa(lp2944
I0
aa(lp2945
I0
aa(lp2946
I0
aa(lp2947
I0
aa(lp2948
I0
aa(lp2949
I0
aa(lp2950
I0
aa(lp2951
I0
aa(lp2952
I0
aa(lp2953
I0
aa(lp2954
I0
aa(lp2955
I0
aa(lp2956
I0
aa(lp2957
I0
aa(lp2958
I0
aa(lp2959
I0
aa(lp2960
I0
aa(lp2961
I0
aa(lp2962
I0
aa(lp2963
I0
aa(lp2964
I0
aa(lp2965
I0
aa(lp2966
I0
aa(lp2967
I0
aa(lp2968
I0
aa(lp2969
I0
aa(lp2970
I0
aa(lp2971
I0
aa(lp2972
I0
aa(lp2973
I0
aa(lp2974
I0
aa(lp2975
I0
aa(lp2976
I0
aa(lp2977
I0
aa(lp2978
I0
aa(lp2979
I0
aa(lp2980
I0
aa(lp2981
I0
aa(lp2982
I0
aa(lp2983
I0
aa(lp2984
I0
aa(lp2985
I0
aa(lp2986
I0
aa(lp2987
I0
aa(lp2988
I0
aa(lp2989
I0
aa(lp2990
I0
aa(lp2991
I0
aa(lp2992
I0
aa(lp2993
I0
aa(lp2994
I0
aa(lp2995
I0
aa(lp2996
I0
aa(lp2997
I0
aa(lp2998
I0
aa(lp2999
I0
aa(lp3000
I0
aa(lp3001
I0
aa(lp3002
I0
aa(lp3003
I0
aa(lp3004
I0
aa(lp3005
I0
aa(lp3006
I0
aa(lp3007
I0
aa(lp3008
I0
aa(lp3009
I0
aa(lp3010
I0
aa(lp3011
I0
aa(lp3012
I0
aa(lp3013
I0
aa(lp3014
I0
aa(lp3015
I0
aa(lp3016
I0
aa(lp3017
I0
aa(lp3018
I0
aa(lp3019
I0
aa(lp3020
I0
aa(lp3021
I0
aa(lp3022
I0
aa(lp3023
I0
aa(lp3024
I0
aa(lp3025
I0
aa(lp3026
I0
aa(lp3027
I0
aa(lp3028
I0
aa(lp3029
I0
aa(lp3030
I0
aa(lp3031
I0
aa(lp3032
I0
aa(lp3033
I0
aa(lp3034
I0
aa(lp3035
I0
aa(lp3036
I0
aa(lp3037
I0
aa(lp3038
I0
aa(lp3039
I0
aa(lp3040
I0
aa(lp3041
I0
aa(lp3042
I0
aa(lp3043
I0
aa(lp3044
I0
aa(lp3045
I0
aa(lp3046
I0
aa(lp3047
I0
aa(lp3048
I0
aa(lp3049
I0
aa(lp3050
I0
aa(lp3051
I0
aa(lp3052
I0
aa(lp3053
I0
aa(lp3054
I0
aa(lp3055
I0
aa(lp3056
I0
aa(lp3057
I0
aa(lp3058
I0
aa(lp3059
I0
aa(lp3060
I0
aa(lp3061
I0
aa(lp3062
I0
aa(lp3063
I0
aa(lp3064
I0
aa(lp3065
I0
aa(lp3066
I0
aa(lp3067
I0
aa(lp3068
I0
aa(lp3069
I0
aa(lp3070
I0
aa(lp3071
I0
aa(lp3072
I0
aa(lp3073
I0
aa(lp3074
I0
aa(lp3075
I0
aa(lp3076
I0
aa(lp3077
I0
aa(lp3078
I0
aa(lp3079
I0
aa(lp3080
I0
aa(lp3081
I0
aa(lp3082
I0
aa(lp3083
I0
aa(lp3084
I0
aa(lp3085
I0
aa(lp3086
I0
aa(lp3087
I0
aa(lp3088
I0
aa(lp3089
I0
aa(lp3090
I0
aa(lp3091
I0
aa(lp3092
I0
aa(lp3093
I0
aa(lp3094
I0
aa(lp3095
I0
aa(lp3096
I0
aa(lp3097
I0
aa(lp3098
I0
aa(lp3099
I0
aa(lp3100
I0
aa(lp3101
I0
aa(lp3102
I0
aa(lp3103
I0
aa(lp3104
I0
aa(lp3105
I0
aa(lp3106
I0
aa(lp3107
I0
aa(lp3108
I0
aa(lp3109
I0
aa(lp3110
I0
aa(lp3111
I0
aa(lp3112
I0
aa(lp3113
I0
aa(lp3114
I0
aa(lp3115
I0
aa(lp3116
I0
aa(lp3117
I0
aa(lp3118
I0
aa(lp3119
I0
aa(lp3120
I0
aa(lp3121
I0
aa(lp3122
I0
aa(lp3123
I0
aa(lp3124
I0
aa(lp3125
I0
aa(lp3126
I0
aa(lp3127
I0
aa(lp3128
I0
aa(lp3129
I0
aa(lp3130
I0
aa(lp3131
I0
aa(lp3132
I0
aa(lp3133
I0
aa(lp3134
I0
aa(lp3135
I0
aa(lp3136
I0
aa(lp3137
I0
aa(lp3138
I0
aa(lp3139
I0
aa(lp3140
I0
aa(lp3141
I0
aa(lp3142
I0
aa(lp3143
I0
aa(lp3144
I0
aa(lp3145
I0
aa(lp3146
I0
aa(lp3147
I0
aa(lp3148
I0
aa(lp3149
I0
aa(lp3150
I0
aa(lp3151
I0
aa(lp3152
I0
aa(lp3153
I0
aa(lp3154
I0
aa(lp3155
I0
aa(lp3156
I0
aa(lp3157
I0
aa(lp3158
I0
aa(lp3159
I0
aa(lp3160
I0
aa(lp3161
I0
aa(lp3162
I0
aa(lp3163
I0
aa(lp3164
I0
aa(lp3165
I0
aa(lp3166
I0
aa(lp3167
I0
aa(lp3168
I0
aa(lp3169
I0
aa(lp3170
I0
aa(lp3171
I0
aa(lp3172
I0
aa(lp3173
I0
aa(lp3174
I0
aa(lp3175
I0
aa(lp3176
I0
aa(lp3177
I0
aa(lp3178
I0
aa(lp3179
I0
aa(lp3180
I0
aa(lp3181
I0
aa(lp3182
I0
aa(lp3183
I0
aa(lp3184
I0
aa(lp3185
I0
aa(lp3186
I0
aa(lp3187
I0
aa(lp3188
I0
aa(lp3189
I0
aa(lp3190
I0
aa(lp3191
I0
aa(lp3192
I0
aa(lp3193
I0
aa(lp3194
I0
aa(lp3195
I0
aa(lp3196
I0
aa(lp3197
I0
aa(lp3198
I0
aa(lp3199
I0
aa(lp3200
I0
aa(lp3201
I0
aa(lp3202
I0
aa(lp3203
I0
aa(lp3204
I0
aa(lp3205
I0
aa(lp3206
I0
aa(lp3207
I0
aa(lp3208
I0
aa(lp3209
I0
aa(lp3210
I0
aa(lp3211
I0
aa(lp3212
I0
aa(lp3213
I0
aa(lp3214
I0
aa(lp3215
I0
aa(lp3216
I0
aa(lp3217
I0
aa(lp3218
I0
aa(lp3219
I0
aa(lp3220
I0
aa(lp3221
I0
aa(lp3222
I0
aa(lp3223
I0
aa(lp3224
I0
aa(lp3225
I0
aa(lp3226
I0
aa(lp3227
I0
aa(lp3228
I0
aa(lp3229
I0
aa(lp3230
I0
aa(lp3231
I0
aa(lp3232
I0
aa(lp3233
I0
aa(lp3234
I0
aa(lp3235
I0
aa(lp3236
I0
aa(lp3237
I0
aa(lp3238
I0
aa(lp3239
I0
aa(lp3240
I0
aa(lp3241
I0
aa(lp3242
I0
aa(lp3243
I0
aa(lp3244
I0
aa(lp3245
I0
aa(lp3246
I0
aa(lp3247
I0
aa(lp3248
I0
aa(lp3249
I0
aa(lp3250
I0
aa(lp3251
I0
aa(lp3252
I0
aa(lp3253
I0
aa(lp3254
I0
aa(lp3255
I0
aa(lp3256
I0
aa(lp3257
I0
aa(lp3258
I0
aa(lp3259
I0
aa(lp3260
I0
aa(lp3261
I0
aa(lp3262
I0
aa(lp3263
I0
aa(lp3264
I0
aa(lp3265
I0
aa(lp3266
I0
aa(lp3267
I0
aa(lp3268
I0
aa(lp3269
I0
aa(lp3270
I0
aa(lp3271
I0
aa(lp3272
I0
aa(lp3273
I0
aa(lp3274
I0
aa(lp3275
I0
aa(lp3276
I0
aa(lp3277
I0
aa(lp3278
I0
aa(lp3279
I0
aa(lp3280
I0
aa(lp3281
I0
aa(lp3282
I0
aa(lp3283
I0
aa(lp3284
I0
aa(lp3285
I0
aa(lp3286
I0
aa(lp3287
I0
aa(lp3288
I0
aa(lp3289
I0
aa(lp3290
I0
aa(lp3291
I0
aa(lp3292
I0
aa(lp3293
I0
aa(lp3294
I0
aa(lp3295
I0
aa(lp3296
I0
aa(lp3297
I0
aa(lp3298
I0
aa(lp3299
I0
aa(lp3300
I0
aa(lp3301
I0
aa(lp3302
I0
aa(lp3303
I0
aa(lp3304
I0
aa(lp3305
I0
aa(lp3306
I0
aa(lp3307
I0
aa(lp3308
I0
aa(lp3309
I0
aa(lp3310
I0
aa(lp3311
I0
aa(lp3312
I0
aa(lp3313
I0
aa(lp3314
I0
aa(lp3315
I0
aa(lp3316
I0
aa(lp3317
I0
aa(lp3318
I0
aa(lp3319
I0
aa(lp3320
I0
aa(lp3321
I0
aa(lp3322
I0
aa(lp3323
I0
aa(lp3324
I0
aa(lp3325
I0
aa(lp3326
I0
aa(lp3327
I0
aa(lp3328
I0
aa(lp3329
I0
aa(lp3330
I0
aa(lp3331
I0
aa(lp3332
I0
aa(lp3333
I0
aa(lp3334
I0
aa(lp3335
I0
aa(lp3336
I0
aa(lp3337
I0
aa(lp3338
I0
aa(lp3339
I0
aa(lp3340
I0
aa(lp3341
I0
aa(lp3342
I0
aa(lp3343
I0
aa(lp3344
I0
aa(lp3345
I0
aa(lp3346
I0
aa(lp3347
I0
aa(lp3348
I0
aa(lp3349
I0
aa(lp3350
I0
aa(lp3351
I0
aa(lp3352
I0
aa(lp3353
I0
aa(lp3354
I0
aa(lp3355
I0
aa(lp3356
I0
aa(lp3357
I0
aa(lp3358
I0
aa(lp3359
I0
aa(lp3360
I0
aa(lp3361
I0
aa(lp3362
I0
aa(lp3363
I0
aa(lp3364
I0
aa(lp3365
I0
aa(lp3366
I0
aa(lp3367
I0
aa(lp3368
I0
aa(lp3369
I0
aa(lp3370
I0
aa(lp3371
I0
aa(lp3372
I0
aa(lp3373
I0
aa(lp3374
I0
aa(lp3375
I0
aa(lp3376
I0
aa(lp3377
I0
aa(lp3378
I0
aa(lp3379
I0
aa(lp3380
I0
aa(lp3381
I0
aa(lp3382
I0
aa(lp3383
I0
aa(lp3384
I0
aa(lp3385
I0
aa(lp3386
I0
aa(lp3387
I0
aa(lp3388
I0
aa(lp3389
I0
aa(lp3390
I0
aa(lp3391
I0
aa(lp3392
I0
aa(lp3393
I0
aa(lp3394
I0
aa(lp3395
I0
aa(lp3396
I0
aa(lp3397
I0
aa(lp3398
I0
aa(lp3399
I0
aa(lp3400
I0
aa(lp3401
I0
aa(lp3402
I0
aa(lp3403
I0
aa(lp3404
I0
aa(lp3405
I0
aa(lp3406
I0
aa(lp3407
I0
aa(lp3408
I0
aa(lp3409
I0
aa(lp3410
I0
aa(lp3411
I0
aa(lp3412
I0
aa(lp3413
I0
aa(lp3414
I0
aa(lp3415
I0
aa(lp3416
I0
aa(lp3417
I0
aa(lp3418
I0
aa(lp3419
I0
aa(lp3420
I0
aa(lp3421
I0
aa(lp3422
I0
aa(lp3423
I0
aa(lp3424
I0
aa(lp3425
I0
aa(lp3426
I0
aa(lp3427
I0
aa(lp3428
I0
aa(lp3429
I0
aa(lp3430
I0
aa(lp3431
I0
aa(lp3432
I0
aa(lp3433
I0
aa(lp3434
I0
aa(lp3435
I0
aa(lp3436
I0
aa(lp3437
I0
aa(lp3438
I0
aa(lp3439
I0
aa(lp3440
I0
aa(lp3441
I0
aa(lp3442
I0
aa(lp3443
I0
aa(lp3444
I0
aa(lp3445
I0
aa(lp3446
I0
aa(lp3447
I0
aa(lp3448
I0
aa(lp3449
I0
aa(lp3450
I0
aa(lp3451
I0
aa(lp3452
I0
aa(lp3453
I0
aa(lp3454
I0
aa(lp3455
I0
aa(lp3456
I0
aa(lp3457
I0
aa(lp3458
I0
aa(lp3459
I0
aa(lp3460
I0
aa(lp3461
I0
aa(lp3462
I0
aa(lp3463
I0
aa(lp3464
I0
aa(lp3465
I0
aa(lp3466
I0
aa(lp3467
I0
aa(lp3468
I0
aa(lp3469
I0
aa(lp3470
I0
aa(lp3471
I0
aa(lp3472
I0
aa(lp3473
I0
aa(lp3474
I0
aa(lp3475
I0
aa(lp3476
I0
aa(lp3477
I0
aa(lp3478
I0
aa(lp3479
I0
aa(lp3480
I0
aa(lp3481
I0
aa(lp3482
I0
aa(lp3483
I0
aa(lp3484
I0
aa(lp3485
I0
aa(lp3486
I0
aa(lp3487
I0
aa(lp3488
I0
aa(lp3489
I0
aa(lp3490
I0
aa(lp3491
I0
aa(lp3492
I0
aa(lp3493
I0
aa(lp3494
I0
aa(lp3495
I0
aa(lp3496
I0
aa(lp3497
I0
aa(lp3498
I0
aa(lp3499
I0
aa(lp3500
I0
aa(lp3501
I0
aa(lp3502
I0
aa(lp3503
I0
aa(lp3504
I0
aa(lp3505
I0
aa(lp3506
I0
aa(lp3507
I0
aa(lp3508
I0
aa(lp3509
I0
aa(lp3510
I0
aa(lp3511
I0
aa(lp3512
I0
aa(lp3513
I0
aa(lp3514
I0
aa(lp3515
I0
aa(lp3516
I0
aa(lp3517
I0
aa(lp3518
I0
aa(lp3519
I0
aa(lp3520
I0
aa(lp3521
I0
aa(lp3522
I0
aa(lp3523
I0
aa(lp3524
I0
aa(lp3525
I0
aa(lp3526
I0
aa(lp3527
I0
aa(lp3528
I0
aa(lp3529
I0
aa(lp3530
I0
aa(lp3531
I0
aa(lp3532
I0
aa(lp3533
I0
aa(lp3534
I0
aa(lp3535
I0
aa(lp3536
I0
aa(lp3537
I0
aa(lp3538
I0
aa(lp3539
I0
aa(lp3540
I0
aa(lp3541
I0
aa(lp3542
I0
aa(lp3543
I0
aa(lp3544
I0
aa(lp3545
I0
aa(lp3546
I0
aa(lp3547
I0
aa(lp3548
I0
aa(lp3549
I0
aa(lp3550
I0
aa(lp3551
I0
aa(lp3552
I0
aa(lp3553
I0
aa(lp3554
I0
aa(lp3555
I0
aa(lp3556
I0
aa(lp3557
I0
aa(lp3558
I0
aa(lp3559
I0
aa(lp3560
I0
aa(lp3561
I0
aa(lp3562
I0
aa(lp3563
I0
aa(lp3564
I0
aa(lp3565
I0
aa(lp3566
I0
aa(lp3567
I0
aa(lp3568
I0
aa(lp3569
I0
aa(lp3570
I0
aa(lp3571
I0
aa(lp3572
I0
aa(lp3573
I0
aa(lp3574
I0
aa(lp3575
I0
aa(lp3576
I0
aa(lp3577
I0
aa(lp3578
I0
aa(lp3579
I0
aa(lp3580
I0
aa(lp3581
I0
aa(lp3582
I0
aa(lp3583
I0
aa(lp3584
I0
aa(lp3585
I0
aa(lp3586
I0
aa(lp3587
I0
aa(lp3588
I0
aa(lp3589
I0
aa(lp3590
I0
aa(lp3591
I0
aa(lp3592
I0
aa(lp3593
I0
aa(lp3594
I0
aa(lp3595
I0
aa(lp3596
I0
aa(lp3597
I0
aa(lp3598
I0
aa(lp3599
I0
aa(lp3600
I0
aa(lp3601
I0
aa(lp3602
I0
aa(lp3603
I0
aa(lp3604
I0
aa(lp3605
I0
aa(lp3606
I0
aa(lp3607
I0
aa(lp3608
I0
aa(lp3609
I0
aa(lp3610
I0
aa(lp3611
I0
aa(lp3612
I0
aa(lp3613
I0
aa(lp3614
I0
aa(lp3615
I0
aa(lp3616
I0
aa(lp3617
I0
aa(lp3618
I0
aa(lp3619
I0
aa(lp3620
I0
aa(lp3621
I0
aa(lp3622
I0
aa(lp3623
I0
aa(lp3624
I0
aa(lp3625
I0
aa(lp3626
I0
aa(lp3627
I0
aa(lp3628
I0
aa(lp3629
I0
aa(lp3630
I0
aa(lp3631
I0
aa(lp3632
I0
aa(lp3633
I0
aa(lp3634
I0
aa(lp3635
I0
aa(lp3636
I0
aa(lp3637
I0
aa(lp3638
I0
aa(lp3639
I0
aa(lp3640
I0
aa(lp3641
I0
aa(lp3642
I0
aa(lp3643
I0
aa(lp3644
I0
aa(lp3645
I0
aa(lp3646
I0
aa(lp3647
I0
aa(lp3648
I0
aa(lp3649
I0
aa(lp3650
I0
aa(lp3651
I0
aa(lp3652
I0
aa(lp3653
I0
aa(lp3654
I0
aa(lp3655
I0
aa(lp3656
I0
aa(lp3657
I0
aa(lp3658
I0
aa(lp3659
I0
aa(lp3660
I0
aa(lp3661
I0
aa(lp3662
I0
aa(lp3663
I0
aa(lp3664
I0
aa(lp3665
I0
aa(lp3666
I0
aa(lp3667
I0
aa(lp3668
I0
aa(lp3669
I0
aa(lp3670
I0
aa(lp3671
I0
aa(lp3672
I0
aa(lp3673
I0
aa(lp3674
I0
aa(lp3675
I0
aa(lp3676
I0
aa(lp3677
I0
aa(lp3678
I0
aa(lp3679
I0
aa(lp3680
I0
aa(lp3681
I0
aa(lp3682
I0
aa(lp3683
I0
aa(lp3684
I0
aa(lp3685
I0
aa(lp3686
I0
aa(lp3687
I0
aa(lp3688
I0
aa(lp3689
I0
aa(lp3690
I0
aa(lp3691
I0
aa(lp3692
I0
aa(lp3693
I0
aa(lp3694
I0
aa(lp3695
I0
aa(lp3696
I0
aa(lp3697
I0
aa(lp3698
I0
aa(lp3699
I0
aa(lp3700
I0
aa(lp3701
I0
aa(lp3702
I0
aa(lp3703
I0
aa(lp3704
I0
aa(lp3705
I0
aa(lp3706
I0
aa(lp3707
I0
aa(lp3708
I0
aa(lp3709
I0
aa(lp3710
I0
aa(lp3711
I0
aa(lp3712
I0
aa(lp3713
I0
aa(lp3714
I0
aa(lp3715
I0
aa(lp3716
I0
aa(lp3717
I0
aa(lp3718
I0
aa(lp3719
I0
aa(lp3720
I0
aa(lp3721
I0
aa(lp3722
I0
aa(lp3723
I0
aa(lp3724
I0
aa(lp3725
I0
aa(lp3726
I0
aa(lp3727
I0
aa(lp3728
I0
aa(lp3729
I0
aa(lp3730
I0
aa(lp3731
I0
aa(lp3732
I0
aa(lp3733
I0
aa(lp3734
I0
aa(lp3735
I0
aa(lp3736
I0
aa(lp3737
I0
aa(lp3738
I0
aa(lp3739
I0
aa(lp3740
I0
aa(lp3741
I0
aa(lp3742
I0
aa(lp3743
I0
aa(lp3744
I0
aa(lp3745
I0
aa(lp3746
I0
aa(lp3747
I0
aa(lp3748
I0
aa(lp3749
I0
aa(lp3750
I0
aa(lp3751
I0
aa(lp3752
I0
aa(lp3753
I0
aa(lp3754
I0
aa(lp3755
I0
aa(lp3756
I0
aa(lp3757
I0
aa(lp3758
I0
aa(lp3759
I0
aa(lp3760
I0
aa(lp3761
I0
aa(lp3762
I0
aa(lp3763
I0
aa(lp3764
I0
aa(lp3765
I0
aa(lp3766
I0
aa(lp3767
I0
aa(lp3768
I0
aa(lp3769
I0
aa(lp3770
I0
aa(lp3771
I0
aa(lp3772
I0
aa(lp3773
I0
aa(lp3774
I0
aa(lp3775
I0
aa(lp3776
I0
aa(lp3777
I0
aa(lp3778
I0
aa(lp3779
I0
aa(lp3780
I0
aa(lp3781
I0
aa(lp3782
I0
aa(lp3783
I0
aa(lp3784
I0
aa(lp3785
I0
aa(lp3786
I0
aa(lp3787
I0
aa(lp3788
I0
aa(lp3789
I0
aa(lp3790
I0
aa(lp3791
I0
aa(lp3792
I0
aa(lp3793
I0
aa(lp3794
I0
aa(lp3795
I0
aa(lp3796
I0
aa(lp3797
I0
aa(lp3798
I0
aa(lp3799
I0
aa(lp3800
I0
aa(lp3801
I0
aa(lp3802
I0
aa(lp3803
I0
aa(lp3804
I0
aa(lp3805
I0
aa(lp3806
I0
aa(lp3807
I0
aa(lp3808
I0
aa(lp3809
I0
aa(lp3810
I0
aa(lp3811
I0
aa(lp3812
I0
aa(lp3813
I0
aa(lp3814
I0
aa(lp3815
I0
aa(lp3816
I0
aa(lp3817
I0
aa(lp3818
I0
aa(lp3819
I0
aa(lp3820
I0
aa(lp3821
I0
aa(lp3822
I0
aa(lp3823
I0
aa(lp3824
I0
aa(lp3825
I0
aa(lp3826
I0
aa(lp3827
I0
aa(lp3828
I0
aa(lp3829
I0
aa(lp3830
I0
aa(lp3831
I0
aa(lp3832
I0
aa(lp3833
I0
aa(lp3834
I0
aa(lp3835
I0
aa(lp3836
I0
aa(lp3837
I0
aa(lp3838
I0
aa(lp3839
I0
aa(lp3840
I0
aa(lp3841
I0
aa(lp3842
I0
aa(lp3843
I0
aa(lp3844
I0
aa(lp3845
I0
aa(lp3846
I0
aa(lp3847
I0
aa(lp3848
I0
aa(lp3849
I0
aa(lp3850
I0
aa(lp3851
I0
aa(lp3852
I0
aa(lp3853
I0
aa(lp3854
I0
aa(lp3855
I0
aa(lp3856
I0
aa(lp3857
I0
aa(lp3858
I0
aa(lp3859
I0
aa(lp3860
I0
aa(lp3861
I0
aa(lp3862
I0
aa(lp3863
I0
aa(lp3864
I0
aa(lp3865
I0
aa(lp3866
I0
aa(lp3867
I0
aa(lp3868
I0
aa(lp3869
I0
aa(lp3870
I0
aa(lp3871
I0
aa(lp3872
I0
aa(lp3873
I0
aa(lp3874
I0
aa(lp3875
I0
aa(lp3876
I0
aa(lp3877
I0
aa(lp3878
I0
aa(lp3879
I0
aa(lp3880
I0
aa(lp3881
I0
aa(lp3882
I0
aa(lp3883
I0
aa(lp3884
I0
aa(lp3885
I0
aa.